target datalayout = "e-m:e-p270:32:32-p271:32:32-p272:64:64-i64:64-i128:128-f80:128-n8:16:32:64-S128"
target triple = "x86_64-unknown-linux-gnu"

%"class.datalog::check_table" = type { %"class.datalog::table_base.base", ptr, ptr }
%"class.datalog::table_base.base" = type { %"class.datalog::tr_infrastructure<datalog::table_traits>::base_ancestor.base" }
%"class.datalog::tr_infrastructure<datalog::table_traits>::base_ancestor.base" = type <{ ptr, ptr, %"class.datalog::table_signature", i32 }>
%"class.datalog::table_signature" = type <{ %"class.datalog::tr_infrastructure<datalog::table_traits>::signature_base", i32, [4 x i8] }>
%"class.datalog::tr_infrastructure<datalog::table_traits>::signature_base" = type { %class.svector }
%class.svector = type { %class.vector }
%class.vector = type { ptr }
%"class.datalog::tr_infrastructure<datalog::table_traits>::base_ancestor" = type <{ ptr, ptr, %"class.datalog::table_signature", i32, [4 x i8] }>

@.str = private unnamed_addr constant [2 x i8] c"\0A\00", align 1
@__FUNCTION__._ZNK7datalog11check_table5cloneEv = private unnamed_addr constant [6 x i8] c"clone\00", align 1
@_ZN7datalog11check_tableC1ERNS_18check_table_pluginERKNS_15table_signatureEPNS_10table_baseES7_ = hidden unnamed_addr alias void (ptr, ptr, ptr, ptr, ptr), ptr @_ZN7datalog11check_tableC2ERNS_18check_table_pluginERKNS_15table_signatureEPNS_10table_baseES7_

; Function Attrs: mustprogress nounwind uwtable
define linkonce_odr hidden noundef nonnull align 8 dereferenceable(32) ptr @_ZNK7datalog17tr_infrastructureINS_12table_traitsEE13base_ancestor10get_pluginEv(ptr noundef nonnull align 8 dereferenceable(36) %this) #5 comdat align 2 {
entry:
  %this.addr = alloca ptr, align 8
  store ptr %this, ptr %this.addr, align 8
  %this1 = load ptr, ptr %this.addr, align 8
  %m_plugin = getelementptr inbounds %"class.datalog::tr_infrastructure<datalog::table_traits>::base_ancestor", ptr %this1, i32 0, i32 1
  %0 = load ptr, ptr %m_plugin, align 8
  ret ptr %0
}

; Function Attrs: mustprogress nounwind uwtable
define linkonce_odr hidden noundef nonnull align 8 dereferenceable(12) ptr @_ZNK7datalog17tr_infrastructureINS_12table_traitsEE13base_ancestor13get_signatureEv(ptr noundef nonnull align 8 dereferenceable(36) %this) #5 comdat align 2 {
entry:
  %this.addr = alloca ptr, align 8
  store ptr %this, ptr %this.addr, align 8
  %this1 = load ptr, ptr %this.addr, align 8
  %m_signature = getelementptr inbounds %"class.datalog::tr_infrastructure<datalog::table_traits>::base_ancestor", ptr %this1, i32 0, i32 2
  ret ptr %m_signature
}

; Function Attrs: mustprogress uwtable
define linkonce_odr hidden noundef nonnull align 8 dereferenceable(52) ptr @_ZNK7datalog11check_table10get_pluginEv(ptr noundef nonnull align 8 dereferenceable(56) %this) #4 comdat align 2 {
entry:
  %this.addr = alloca ptr, align 8
  store ptr %this, ptr %this.addr, align 8
  %this1 = load ptr, ptr %this.addr, align 8
  %call = call noundef nonnull align 8 dereferenceable(32) ptr @_ZNK7datalog17tr_infrastructureINS_12table_traitsEE13base_ancestor10get_pluginEv(ptr noundef nonnull align 8 dereferenceable(36) %this1)
  ret ptr %call
}

; Function Attrs: mustprogress uwtable
define hidden noundef ptr @_ZNK7datalog11check_table5cloneEv(ptr noundef nonnull align 8 dereferenceable(56) %this) unnamed_addr #4 align 2 {
entry:
  %this.addr = alloca ptr, align 8
  %result = alloca ptr, align 8
  store ptr %this, ptr %this.addr, align 8
  %this1 = load ptr, ptr %this.addr, align 8
  %call = call noundef i32 @_Z19get_verbosity_levelv()
  %cmp = icmp uge i32 %call, 1
  br i1 %cmp, label %if.then, label %if.end10

if.then:                                          ; preds = %entry
  %call2 = call noundef zeroext i1 @_Z11is_threadedv()
  br i1 %call2, label %if.then3, label %if.else

if.then3:                                         ; preds = %if.then
  call void @_Z12verbose_lockv()
  %call4 = call noundef nonnull align 8 dereferenceable(8) ptr @_Z14verbose_streamv()
  %call5 = call noundef nonnull align 8 dereferenceable(8) ptr @_ZStlsISt11char_traitsIcEERSt13basic_ostreamIcT_ES5_PKc(ptr noundef nonnull align 8 dereferenceable(8) %call4, ptr noundef @__FUNCTION__._ZNK7datalog11check_table5cloneEv)
  %call6 = call noundef nonnull align 8 dereferenceable(8) ptr @_ZStlsISt11char_traitsIcEERSt13basic_ostreamIcT_ES5_PKc(ptr noundef nonnull align 8 dereferenceable(8) %call5, ptr noundef @.str)
  call void @_Z14verbose_unlockv()
  br label %if.end

if.else:                                          ; preds = %if.then
  %call7 = call noundef nonnull align 8 dereferenceable(8) ptr @_Z14verbose_streamv()
  %call8 = call noundef nonnull align 8 dereferenceable(8) ptr @_ZStlsISt11char_traitsIcEERSt13basic_ostreamIcT_ES5_PKc(ptr noundef nonnull align 8 dereferenceable(8) %call7, ptr noundef @__FUNCTION__._ZNK7datalog11check_table5cloneEv)
  %call9 = call noundef nonnull align 8 dereferenceable(8) ptr @_ZStlsISt11char_traitsIcEERSt13basic_ostreamIcT_ES5_PKc(ptr noundef nonnull align 8 dereferenceable(8) %call8, ptr noundef @.str)
  br label %if.end

if.end:                                           ; preds = %if.else, %if.then3
  br label %if.end10

if.end10:                                         ; preds = %if.end, %entry
  %call11 = call noalias noundef ptr @_ZN6memory8allocateEm(i64 noundef 56)
  %call12 = call noundef nonnull align 8 dereferenceable(52) ptr @_ZNK7datalog11check_table10get_pluginEv(ptr noundef nonnull align 8 dereferenceable(56) %this1)
  %call13 = call noundef nonnull align 8 dereferenceable(12) ptr @_ZNK7datalog17tr_infrastructureINS_12table_traitsEE13base_ancestor13get_signatureEv(ptr noundef nonnull align 8 dereferenceable(36) %this1)
  %m_tocheck = getelementptr inbounds %"class.datalog::check_table", ptr %this1, i32 0, i32 2
  %0 = load ptr, ptr %m_tocheck, align 8
  %vtable = load ptr, ptr %0, align 8
  %vfn = getelementptr inbounds ptr, ptr %vtable, i64 9
  %1 = load ptr, ptr %vfn, align 8
  %call14 = call noundef ptr %1(ptr noundef nonnull align 8 dereferenceable(36) %0)
  %m_checker = getelementptr inbounds %"class.datalog::check_table", ptr %this1, i32 0, i32 1
  %2 = load ptr, ptr %m_checker, align 8
  %vtable15 = load ptr, ptr %2, align 8
  %vfn16 = getelementptr inbounds ptr, ptr %vtable15, i64 9
  %3 = load ptr, ptr %vfn16, align 8
  %call17 = call noundef ptr %3(ptr noundef nonnull align 8 dereferenceable(36) %2)
  call void @_ZN7datalog11check_tableC1ERNS_18check_table_pluginERKNS_15table_signatureEPNS_10table_baseES7_(ptr noundef nonnull align 8 dereferenceable(56) %call11, ptr noundef nonnull align 8 dereferenceable(52) %call12, ptr noundef nonnull align 8 dereferenceable(12) %call13, ptr noundef %call14, ptr noundef %call17)
  store ptr %call11, ptr %result, align 8
  %4 = load ptr, ptr %result, align 8
  ret ptr %4
}