; Function Attrs: mustprogress uwtable
define hidden noundef ptr @_ZNK7datalog11check_table5cloneEv(ptr nocapture noundef nonnull readonly align 8 dereferenceable(56) %this) unnamed_addr #3 align 2 personality ptr @__gxx_personality_v0 {
entry:
  %call = tail call noundef i32 @_Z19get_verbosity_levelv()
  %cmp.not = icmp eq i32 %call, 0
  br i1 %cmp.not, label %if.end10, label %if.then

if.then:                                          ; preds = %entry
  %call2 = tail call noundef zeroext i1 @_Z11is_threadedv()
  br i1 %call2, label %if.then3, label %if.else

if.then3:                                         ; preds = %if.then
  tail call void @_Z12verbose_lockv()
  %call4 = tail call noundef nonnull align 8 dereferenceable(8) ptr @_Z14verbose_streamv()
  %call5 = tail call noundef nonnull align 8 dereferenceable(8) ptr @_ZStlsISt11char_traitsIcEERSt13basic_ostreamIcT_ES5_PKc(ptr noundef nonnull align 8 dereferenceable(8) %call4, ptr noundef nonnull @__FUNCTION__._ZNK7datalog11check_table5cloneEv)
  %call6 = tail call noundef nonnull align 8 dereferenceable(8) ptr @_ZStlsISt11char_traitsIcEERSt13basic_ostreamIcT_ES5_PKc(ptr noundef nonnull align 8 dereferenceable(8) %call5, ptr noundef nonnull @.str)
  tail call void @_Z14verbose_unlockv()
  br label %if.end10

if.else:                                          ; preds = %if.then
  %call7 = tail call noundef nonnull align 8 dereferenceable(8) ptr @_Z14verbose_streamv()
  %call8 = tail call noundef nonnull align 8 dereferenceable(8) ptr @_ZStlsISt11char_traitsIcEERSt13basic_ostreamIcT_ES5_PKc(ptr noundef nonnull align 8 dereferenceable(8) %call7, ptr noundef nonnull @__FUNCTION__._ZNK7datalog11check_table5cloneEv)
  %call9 = tail call noundef nonnull align 8 dereferenceable(8) ptr @_ZStlsISt11char_traitsIcEERSt13basic_ostreamIcT_ES5_PKc(ptr noundef nonnull align 8 dereferenceable(8) %call8, ptr noundef nonnull @.str)
  br label %if.end10

if.end10:                                         ; preds = %if.then3, %if.else, %entry
  %call11 = tail call noalias noundef ptr @_ZN6memory8allocateEm(i64 noundef 56)
  %m_plugin.i.i = getelementptr inbounds i8, ptr %this, i64 8
  %0 = load ptr, ptr %m_plugin.i.i, align 8
  %m_signature.i = getelementptr inbounds i8, ptr %this, i64 16
  %m_tocheck = getelementptr inbounds i8, ptr %this, i64 48
  %1 = load ptr, ptr %m_tocheck, align 8
  %vtable = load ptr, ptr %1, align 8
  %vfn = getelementptr inbounds i8, ptr %vtable, i64 72
  %2 = load ptr, ptr %vfn, align 8
  %call14 = tail call noundef ptr %2(ptr noundef nonnull align 8 dereferenceable(36) %1)
  %m_checker = getelementptr inbounds i8, ptr %this, i64 40
  %3 = load ptr, ptr %m_checker, align 8
  %vtable15 = load ptr, ptr %3, align 8
  %vfn16 = getelementptr inbounds i8, ptr %vtable15, i64 72
  %4 = load ptr, ptr %vfn16, align 8
  %call17 = tail call noundef ptr %4(ptr noundef nonnull align 8 dereferenceable(36) %3)
  store ptr getelementptr inbounds ({ [18 x ptr] }, ptr @_ZTVN7datalog17tr_infrastructureINS_12table_traitsEE13base_ancestorE, i64 0, i32 0, i64 2), ptr %call11, align 8
  %m_plugin.i.i.i = getelementptr inbounds i8, ptr %call11, i64 8
  store ptr %0, ptr %m_plugin.i.i.i, align 8
  %m_signature.i.i.i = getelementptr inbounds i8, ptr %call11, i64 16
  store ptr null, ptr %m_signature.i.i.i, align 8
  %5 = load ptr, ptr %m_signature.i, align 8
  %tobool.not.i.i.i.i.i.i.i = icmp eq ptr %5, null
  br i1 %tobool.not.i.i.i.i.i.i.i, label %_ZN7datalog10table_baseC2ERNS_12table_pluginERKNS_15table_signatureE.exit.i, label %_ZNK6vectorImLb0EjE8capacityEv.exit.i.i.i.i.i.i.i.i

_ZNK6vectorImLb0EjE8capacityEv.exit.i.i.i.i.i.i.i.i: ; preds = %if.end10
  %arrayidx.i11.i.i.i.i.i.i.i.i = getelementptr inbounds i8, ptr %5, i64 -8
  %6 = load <2 x i32>, ptr %arrayidx.i11.i.i.i.i.i.i.i.i, align 4
  %7 = extractelement <2 x i32> %6, i64 0
  %conv.i.i.i.i.i.i.i.i = zext i32 %7 to i64
  %mul.i.i.i.i.i.i.i.i = shl nuw nsw i64 %conv.i.i.i.i.i.i.i.i, 3
  %add.i.i.i.i.i.i.i.i = add nuw nsw i64 %mul.i.i.i.i.i.i.i.i, 8
  %call3.i.i.i.i.i.i.i.i = tail call noalias noundef ptr @_ZN6memory8allocateEm(i64 noundef %add.i.i.i.i.i.i.i.i)
  store <2 x i32> %6, ptr %call3.i.i.i.i.i.i.i.i, align 4
  %incdec.ptr4.i.i.i.i.i.i.i.i = getelementptr inbounds i8, ptr %call3.i.i.i.i.i.i.i.i, i64 8
  store ptr %incdec.ptr4.i.i.i.i.i.i.i.i, ptr %m_signature.i.i.i, align 8
  %8 = load ptr, ptr %m_signature.i, align 8
  %cmp.i.i.i.i.i.i.i.i.i.i = icmp eq ptr %8, null
  br i1 %cmp.i.i.i.i.i.i.i.i.i.i, label %_ZN7datalog10table_baseC2ERNS_12table_pluginERKNS_15table_signatureE.exit.i, label %_ZNK6vectorImLb0EjE3endEv.exit.i.i.i.i.i.i.i.i

_ZNK6vectorImLb0EjE3endEv.exit.i.i.i.i.i.i.i.i:   ; preds = %_ZNK6vectorImLb0EjE8capacityEv.exit.i.i.i.i.i.i.i.i
  %arrayidx.i.i.i.i.i.i.i.i.i.i = getelementptr inbounds i8, ptr %8, i64 -4
  %9 = load i32, ptr %arrayidx.i.i.i.i.i.i.i.i.i.i, align 4
  %tobool.not.i.i.i.i.i.i.i.i.i.i.i.i.i.i.i = icmp eq i32 %9, 0
  br i1 %tobool.not.i.i.i.i.i.i.i.i.i.i.i.i.i.i.i, label %_ZN7datalog10table_baseC2ERNS_12table_pluginERKNS_15table_signatureE.exit.i, label %if.then.i.i.i.i.i.i.i.i.i.i.i.i.i.i.i

if.then.i.i.i.i.i.i.i.i.i.i.i.i.i.i.i:            ; preds = %_ZNK6vectorImLb0EjE3endEv.exit.i.i.i.i.i.i.i.i
  %10 = zext i32 %9 to i64
  %11 = shl nuw nsw i64 %10, 3
  tail call void @llvm.memmove.p0.p0.i64(ptr nonnull align 8 %incdec.ptr4.i.i.i.i.i.i.i.i, ptr nonnull align 8 %8, i64 %11, i1 false)
  br label %_ZN7datalog10table_baseC2ERNS_12table_pluginERKNS_15table_signatureE.exit.i

_ZN7datalog10table_baseC2ERNS_12table_pluginERKNS_15table_signatureE.exit.i: ; preds = %if.then.i.i.i.i.i.i.i.i.i.i.i.i.i.i.i, %_ZNK6vectorImLb0EjE3endEv.exit.i.i.i.i.i.i.i.i, %_ZNK6vectorImLb0EjE8capacityEv.exit.i.i.i.i.i.i.i.i, %if.end10
  %m_functional_columns.i.i.i.i = getelementptr inbounds i8, ptr %call11, i64 24
  %m_functional_columns2.i.i.i.i = getelementptr inbounds i8, ptr %this, i64 24
  %12 = load i32, ptr %m_functional_columns2.i.i.i.i, align 8
  store i32 %12, ptr %m_functional_columns.i.i.i.i, align 8
  %m_kind.i.i.i = getelementptr inbounds i8, ptr %call11, i64 32
  %m_kind.i.i.i.i = getelementptr inbounds i8, ptr %0, i64 8
  %13 = load i32, ptr %m_kind.i.i.i.i, align 8
  store i32 %13, ptr %m_kind.i.i.i, align 8
  store ptr getelementptr inbounds ({ [29 x ptr] }, ptr @_ZTVN7datalog11check_tableE, i64 0, i32 0, i64 2), ptr %call11, align 8
  %m_checker.i = getelementptr inbounds i8, ptr %call11, i64 40
  store ptr %call17, ptr %m_checker.i, align 8
  %m_tocheck.i = getelementptr inbounds i8, ptr %call11, i64 48
  store ptr %call14, ptr %m_tocheck.i, align 8
  %call.i = invoke noundef zeroext i1 @_ZNK7datalog11check_table11well_formedEv(ptr noundef nonnull align 8 dereferenceable(56) %call11)
          to label %_ZN7datalog11check_tableC2ERNS_18check_table_pluginERKNS_15table_signatureEPNS_10table_baseES7_.exit unwind label %lpad.i

lpad.i:                                           ; preds = %_ZN7datalog10table_baseC2ERNS_12table_pluginERKNS_15table_signatureE.exit.i
  %14 = landingpad { ptr, i32 }
          cleanup
  tail call void @_ZN7datalog10table_baseD2Ev(ptr noundef nonnull align 8 dereferenceable(36) %call11) #14
  resume { ptr, i32 } %14

_ZN7datalog11check_tableC2ERNS_18check_table_pluginERKNS_15table_signatureEPNS_10table_baseES7_.exit: ; preds = %_ZN7datalog10table_baseC2ERNS_12table_pluginERKNS_15table_signatureE.exit.i
  ret ptr %call11
}